; Function Attrs: nounwind sspstrong uwtable
define internal void @v9fs_remove(ptr noundef %opaque) #0 {
entry:
  %_now.i.i = alloca %struct.timeval, align 8
  %fid = alloca i32, align 4
  %call = call i64 (ptr, i64, ptr, ...) @pdu_unmarshal(ptr noundef %opaque, i64 noundef 7, ptr noundef nonnull @.str.14, ptr noundef nonnull %fid)
  %conv = trunc i64 %call to i32
  %cmp = icmp slt i32 %conv, 0
  br i1 %cmp, label %out_nofid, label %if.end

if.end:                                           ; preds = %entry
  %tag = getelementptr inbounds nuw i8, ptr %opaque, i64 4
  %0 = load i16, ptr %tag, align 4
  %id = getelementptr inbounds nuw i8, ptr %opaque, i64 6
  %1 = load i8, ptr %id, align 2
  %2 = load i32, ptr %fid, align 4
  call void @llvm.lifetime.start.p0(i64 16, ptr nonnull %_now.i.i)
  %3 = load i32, ptr @trace_events_enabled_count, align 4
  %tobool.i.i = icmp ne i32 %3, 0
  %4 = load i16, ptr @_TRACE_V9FS_REMOVE_DSTATE, align 2
  %tobool4.i.i = icmp ne i16 %4, 0
  %or.cond.i.i = select i1 %tobool.i.i, i1 %tobool4.i.i, i1 false
  br i1 %or.cond.i.i, label %land.lhs.true5.i.i, label %trace_v9fs_remove.exit

land.lhs.true5.i.i:                               ; preds = %if.end
  %5 = load i32, ptr @qemu_loglevel, align 4
  %and.i.i.i = and i32 %5, 32768
  %cmp.i.not.i.i = icmp eq i32 %and.i.i.i, 0
  br i1 %cmp.i.not.i.i, label %trace_v9fs_remove.exit, label %if.then.i.i

if.then.i.i:                                      ; preds = %land.lhs.true5.i.i
  %6 = load i8, ptr @message_with_timestamp, align 1
  %tobool7.i.i = trunc i8 %6 to i1
  br i1 %tobool7.i.i, label %if.then8.i.i, label %if.else.i.i

if.then8.i.i:                                     ; preds = %if.then.i.i
  %call9.i.i = call i32 @gettimeofday(ptr noundef nonnull %_now.i.i, ptr noundef null) #24
  %call10.i.i = call i32 @qemu_get_thread_id() #24
  %7 = load i64, ptr %_now.i.i, align 8
  %tv_usec.i.i = getelementptr inbounds nuw i8, ptr %_now.i.i, i64 8
  %8 = load i64, ptr %tv_usec.i.i, align 8
  %conv11.i.i = zext i16 %0 to i32
  %conv12.i.i = zext i8 %1 to i32
  call void (ptr, ...) @qemu_log(ptr noundef nonnull @.str.159, i32 noundef %call10.i.i, i64 noundef %7, i64 noundef %8, i32 noundef %conv11.i.i, i32 noundef %conv12.i.i, i32 noundef %2) #24
  br label %trace_v9fs_remove.exit

if.else.i.i:                                      ; preds = %if.then.i.i
  %conv13.i.i = zext i16 %0 to i32
  %conv14.i.i = zext i8 %1 to i32
  call void (ptr, ...) @qemu_log(ptr noundef nonnull @.str.160, i32 noundef %conv13.i.i, i32 noundef %conv14.i.i, i32 noundef %2) #24
  br label %trace_v9fs_remove.exit

trace_v9fs_remove.exit:                           ; preds = %if.end, %land.lhs.true5.i.i, %if.then8.i.i, %if.else.i.i
  call void @llvm.lifetime.end.p0(i64 16, ptr nonnull %_now.i.i)
  %9 = load i32, ptr %fid, align 4
  %call2 = call ptr @get_fid(ptr noundef nonnull %opaque, i32 noundef %9)
  %cmp3 = icmp eq ptr %call2, null
  br i1 %cmp3, label %out_nofid, label %if.end6

if.end6:                                          ; preds = %trace_v9fs_remove.exit
  %s = getelementptr inbounds nuw i8, ptr %opaque, i64 24
  %10 = load ptr, ptr %s, align 8
  %export_flags = getelementptr inbounds nuw i8, ptr %10, i64 48
  %11 = load i32, ptr %export_flags, align 8
  %and = and i32 %11, 2
  %tobool.not = icmp eq i32 %and, 0
  br i1 %tobool.not, label %out_err, label %if.end8

if.end8:                                          ; preds = %if.end6
  %path = getelementptr inbounds nuw i8, ptr %call2, i64 8
  %call9 = call i32 @v9fs_mark_fids_unreclaim(ptr noundef nonnull %opaque, ptr noundef nonnull %path)
  %cmp10 = icmp slt i32 %call9, 0
  br i1 %cmp10, label %out_err, label %if.end13

if.end13:                                         ; preds = %if.end8
  %call15 = call i32 @v9fs_co_remove(ptr noundef nonnull %opaque, ptr noundef nonnull %path) #24
  %tobool16.not = icmp eq i32 %call15, 0
  %spec.select = select i1 %tobool16.not, i32 7, i32 %call15
  br label %out_err

out_err:                                          ; preds = %if.end13, %if.end6, %if.end8
  %err.1 = phi i32 [ %call9, %if.end8 ], [ -95, %if.end6 ], [ %spec.select, %if.end13 ]
  %12 = load ptr, ptr %s, align 8
  %fid21 = getelementptr inbounds nuw i8, ptr %call2, i64 4
  %13 = load i32, ptr %fid21, align 4
  %fids.i = getelementptr inbounds nuw i8, ptr %12, i64 16
  %14 = load ptr, ptr %fids.i, align 8
  %conv.i = sext i32 %13 to i64
  %15 = inttoptr i64 %conv.i to ptr
  %call.i = call ptr @g_hash_table_lookup(ptr noundef %14, ptr noundef %15) #24
  %tobool.not.i = icmp eq ptr %call.i, null
  br i1 %tobool.not.i, label %clunk_fid.exit, label %if.then.i

if.then.i:                                        ; preds = %out_err
  %16 = load ptr, ptr %fids.i, align 8
  %call3.i = call i32 @g_hash_table_remove(ptr noundef %16, ptr noundef %15) #24
  %clunked.i = getelementptr inbounds nuw i8, ptr %call.i, i64 264
  store i8 1, ptr %clunked.i, align 8
  br label %clunk_fid.exit

clunk_fid.exit:                                   ; preds = %out_err, %if.then.i
  %ref.i = getelementptr inbounds nuw i8, ptr %call2, i64 260
  %17 = load i32, ptr %ref.i, align 4
  %tobool.not.i18 = icmp eq i32 %17, 0
  br i1 %tobool.not.i18, label %if.else.i, label %if.end.i

if.else.i:                                        ; preds = %clunk_fid.exit
  call void @__assert_fail(ptr noundef nonnull @.str.13, ptr noundef nonnull @.str, i32 noundef 396, ptr noundef nonnull @__PRETTY_FUNCTION__.put_fid) #28
  unreachable

if.end.i:                                         ; preds = %clunk_fid.exit
  %dec.i = add i32 %17, -1
  store i32 %dec.i, ptr %ref.i, align 4
  %tobool3.not.i = icmp eq i32 %dec.i, 0
  br i1 %tobool3.not.i, label %land.lhs.true.i, label %out_nofid

land.lhs.true.i:                                  ; preds = %if.end.i
  %clunked.i19 = getelementptr inbounds nuw i8, ptr %call2, i64 264
  %18 = load i8, ptr %clunked.i19, align 8
  %tobool4.i = trunc i8 %18 to i1
  br i1 %tobool4.i, label %if.then5.i, label %out_nofid

if.then5.i:                                       ; preds = %land.lhs.true.i
  %19 = load i32, ptr %fid21, align 4
  %20 = load ptr, ptr %s, align 8
  %root_fid.i = getelementptr inbounds nuw i8, ptr %20, i64 7360
  %21 = load i32, ptr %root_fid.i, align 8
  %cmp.i = icmp eq i32 %19, %21
  br i1 %cmp.i, label %if.then6.i, label %if.end8.i

if.then6.i:                                       ; preds = %if.then5.i
  %migration_blocker.i = getelementptr inbounds nuw i8, ptr %20, i64 7368
  call void @migrate_del_blocker(ptr noundef nonnull %migration_blocker.i) #24
  br label %if.end8.i

if.end8.i:                                        ; preds = %if.then6.i, %if.then5.i
  %call.i20 = call i32 @free_fid(ptr noundef nonnull %opaque, ptr noundef nonnull %call2)
  br label %out_nofid

out_nofid:                                        ; preds = %if.end8.i, %land.lhs.true.i, %if.end.i, %trace_v9fs_remove.exit, %entry
  %err.0 = phi i32 [ %conv, %entry ], [ -22, %trace_v9fs_remove.exit ], [ %err.1, %if.end.i ], [ %err.1, %land.lhs.true.i ], [ %err.1, %if.end8.i ]
  %conv24 = sext i32 %err.0 to i64
  call void @pdu_complete(ptr noundef %opaque, i64 noundef %conv24)
  ret void
}